; Function Attrs: mustprogress nofree norecurse nosync nounwind willreturn memory(readwrite, inaccessiblemem: none) uwtable
define internal noundef zeroext i1 @_ZNSt17_Function_handlerIFbllbEZN5arrow7compute8internal12_GLOBAL__N_119PrimitiveFilterImplILi16ELb0EE13ExecREEFilterEvEUlllbE_E9_M_invokeERKSt9_Any_dataOlSC_Ob(ptr noundef nonnull readonly align 8 captures(none) dereferenceable(16) %0, ptr noundef nonnull readonly align 8 captures(none) dereferenceable(8) %1, ptr noundef nonnull readonly align 8 captures(none) dereferenceable(8) %2, ptr nonnull readonly align 1 captures(none) %3) #9 align 2 {
  %.val = load ptr, ptr %0, align 8, !tbaa !930
  %.val4 = load i64, ptr %1, align 8, !tbaa !75
  %.val5 = load i64, ptr %2, align 8, !tbaa !75
  %5 = getelementptr inbounds nuw i8, ptr %.val, i64 72
  %6 = load ptr, ptr %5, align 8, !tbaa !275
  %7 = getelementptr inbounds nuw i8, ptr %.val, i64 88
  %8 = load i64, ptr %7, align 8, !tbaa !277
  %9 = shl nsw i64 %8, 4
  %10 = getelementptr inbounds i8, ptr %6, i64 %9
  %11 = getelementptr inbounds nuw i8, ptr %.val, i64 16
  %12 = load ptr, ptr %11, align 8, !tbaa !269
  %13 = shl nsw i64 %.val4, 4
  %14 = getelementptr inbounds i8, ptr %12, i64 %13
  %15 = shl nsw i64 %.val5, 4
  tail call void @llvm.memcpy.p0.p0.i64(ptr align 1 %10, ptr align 1 %14, i64 %15, i1 false)
  %16 = load i64, ptr %7, align 8, !tbaa !277
  %17 = add nsw i64 %16, %.val5
  store i64 %17, ptr %7, align 8, !tbaa !277
  ret i1 true
}